; Function Attrs: mustprogress nofree norecurse nosync nounwind willreturn memory(argmem: read) uwtable
define hidden noundef zeroext i1 @_ZNK4cvc58internal6theory5arith6linear18ConstraintDatabase23variableDatabaseIsSetupEj(ptr nocapture noundef nonnull readonly align 8 dereferenceable(488) %this, i32 noundef %v) local_unnamed_addr #7 align 2 {
entry:
  %conv = zext i32 %v to i64
  %d_varDatabases = getelementptr inbounds i8, ptr %this, i64 16
  %_M_finish.i = getelementptr inbounds i8, ptr %this, i64 24
  %0 = load ptr, ptr %_M_finish.i, align 8
  %1 = load ptr, ptr %d_varDatabases, align 8
  %sub.ptr.lhs.cast.i = ptrtoint ptr %0 to i64
  %sub.ptr.rhs.cast.i = ptrtoint ptr %1 to i64
  %sub.ptr.sub.i = sub i64 %sub.ptr.lhs.cast.i, %sub.ptr.rhs.cast.i
  %sub.ptr.div.i = ashr exact i64 %sub.ptr.sub.i, 3
  %cmp = icmp ugt i64 %sub.ptr.div.i, %conv
  ret i1 %cmp
}